target datalayout = "e-m:e-p270:32:32-p271:32:32-p272:64:64-i64:64-i128:128-f80:128-n8:16:32:64-S128"
target triple = "x86_64-pc-linux-gnu"

%struct.ident_t = type { i32, i32, i32, i32, ptr }
%"struct.SortedTreeNodes::_Indices" = type { [4 x i32] }
%"struct.SortedTreeNodes::XSliceTableData" = type { ptr, ptr, i32, i32, i32, i32, ptr, ptr }

@1 = private unnamed_addr constant %struct.ident_t { i32 0, i32 514, i32 0, i32 22, ptr @0 }, align 8

; Function Attrs: mustprogress nounwind uwtable
define linkonce_odr noundef nonnull align 4 dereferenceable(4) ptr @_ZN15SortedTreeNodes8_IndicesILi4EEixEi(ptr noundef nonnull align 4 dereferenceable(16) %0, i32 noundef %1) #4 comdat align 2 {
  %3 = alloca ptr, align 8
  %4 = alloca i32, align 4
  store ptr %0, ptr %3, align 8
  store i32 %1, ptr %4, align 4
  %5 = load ptr, ptr %3, align 8
  %6 = getelementptr inbounds %"struct.SortedTreeNodes::_Indices", ptr %5, i32 0, i32 0
  %7 = load i32, ptr %4, align 4
  %8 = sext i32 %7 to i64
  %9 = getelementptr inbounds [4 x i32], ptr %6, i64 0, i64 %8
  ret ptr %9
}

; Function Attrs: norecurse nounwind uwtable
define internal void @_ZNK15SortedTreeNodes18setXSliceTableDataERNS_15XSliceTableDataEiii.omp_outlined.12(ptr noalias noundef %0, ptr noalias noundef %1, ptr noundef nonnull align 8 dereferenceable(48) %2) #17 {
  %4 = alloca ptr, align 8
  %5 = alloca ptr, align 8
  %6 = alloca ptr, align 8
  %7 = alloca ptr, align 8
  %8 = alloca i32, align 4
  %9 = alloca i32, align 4
  %10 = alloca i32, align 4
  %11 = alloca i32, align 4
  %12 = alloca i32, align 4
  %13 = alloca i32, align 4
  %14 = alloca i32, align 4
  %15 = alloca i32, align 4
  %16 = alloca i32, align 4
  %17 = alloca i32, align 4
  %18 = alloca i32, align 4
  store ptr %0, ptr %4, align 8
  store ptr %1, ptr %5, align 8
  store ptr %2, ptr %6, align 8
  %19 = load ptr, ptr %6, align 8
  store ptr %19, ptr %7, align 8
  %20 = load ptr, ptr %7, align 8
  %21 = getelementptr inbounds %"struct.SortedTreeNodes::XSliceTableData", ptr %20, i32 0, i32 5
  %22 = load i32, ptr %21, align 4
  store i32 %22, ptr %9, align 4
  %23 = load i32, ptr %9, align 4
  %24 = sub nsw i32 %23, 0
  %25 = sdiv i32 %24, 1
  %26 = sub nsw i32 %25, 1
  store i32 %26, ptr %10, align 4
  store i32 0, ptr %11, align 4
  %27 = load i32, ptr %9, align 4
  %28 = icmp slt i32 0, %27
  br i1 %28, label %29, label %121

29:                                               ; preds = %3
  store i32 0, ptr %12, align 4
  %30 = load i32, ptr %10, align 4
  store i32 %30, ptr %13, align 4
  store i32 1, ptr %14, align 4
  store i32 0, ptr %15, align 4
  %31 = load ptr, ptr %4, align 8
  %32 = load i32, ptr %31, align 4
  call void @__kmpc_for_static_init_4(ptr @1, i32 %32, i32 34, ptr %15, ptr %12, ptr %13, ptr %14, i32 1, i32 1)
  %33 = load i32, ptr %13, align 4
  %34 = load i32, ptr %10, align 4
  %35 = icmp sgt i32 %33, %34
  br i1 %35, label %36, label %38

36:                                               ; preds = %29
  %37 = load i32, ptr %10, align 4
  br label %40

38:                                               ; preds = %29
  %39 = load i32, ptr %13, align 4
  br label %40

40:                                               ; preds = %38, %36
  %41 = phi i32 [ %37, %36 ], [ %39, %38 ]
  store i32 %41, ptr %13, align 4
  %42 = load i32, ptr %12, align 4
  store i32 %42, ptr %8, align 4
  br label %43

43:                                               ; preds = %114, %40
  %44 = load i32, ptr %8, align 4
  %45 = load i32, ptr %13, align 4
  %46 = icmp sle i32 %44, %45
  br i1 %46, label %47, label %117

47:                                               ; preds = %43
  %48 = load i32, ptr %8, align 4
  %49 = mul nsw i32 %48, 1
  %50 = add nsw i32 0, %49
  store i32 %50, ptr %16, align 4
  store i32 0, ptr %17, align 4
  br label %51

51:                                               ; preds = %78, %47
  %52 = load i32, ptr %17, align 4
  %53 = icmp ult i32 %52, 4
  br i1 %53, label %54, label %81

54:                                               ; preds = %51
  %55 = load ptr, ptr %7, align 8
  %56 = getelementptr inbounds %"struct.SortedTreeNodes::XSliceTableData", ptr %55, i32 0, i32 6
  %57 = load ptr, ptr %56, align 8
  %58 = load ptr, ptr %7, align 8
  %59 = getelementptr inbounds %"struct.SortedTreeNodes::XSliceTableData", ptr %58, i32 0, i32 0
  %60 = load ptr, ptr %59, align 8
  %61 = load i32, ptr %16, align 4
  %62 = sext i32 %61 to i64
  %63 = getelementptr inbounds %"struct.SortedTreeNodes::_Indices", ptr %60, i64 %62
  %64 = load i32, ptr %17, align 4
  %65 = call noundef nonnull align 4 dereferenceable(4) ptr @_ZN15SortedTreeNodes8_IndicesILi4EEixEi(ptr noundef nonnull align 4 dereferenceable(16) %63, i32 noundef %64)
  %66 = load i32, ptr %65, align 4
  %67 = sext i32 %66 to i64
  %68 = getelementptr inbounds i32, ptr %57, i64 %67
  %69 = load i32, ptr %68, align 4
  %70 = load ptr, ptr %7, align 8
  %71 = getelementptr inbounds %"struct.SortedTreeNodes::XSliceTableData", ptr %70, i32 0, i32 0
  %72 = load ptr, ptr %71, align 8
  %73 = load i32, ptr %16, align 4
  %74 = sext i32 %73 to i64
  %75 = getelementptr inbounds %"struct.SortedTreeNodes::_Indices", ptr %72, i64 %74
  %76 = load i32, ptr %17, align 4
  %77 = call noundef nonnull align 4 dereferenceable(4) ptr @_ZN15SortedTreeNodes8_IndicesILi4EEixEi(ptr noundef nonnull align 4 dereferenceable(16) %75, i32 noundef %76)
  store i32 %69, ptr %77, align 4
  br label %78

78:                                               ; preds = %54
  %79 = load i32, ptr %17, align 4
  %80 = add i32 %79, 1
  store i32 %80, ptr %17, align 4
  br label %51, !llvm.loop !64

81:                                               ; preds = %51
  store i32 0, ptr %18, align 4
  br label %82

82:                                               ; preds = %109, %81
  %83 = load i32, ptr %18, align 4
  %84 = icmp ult i32 %83, 4
  br i1 %84, label %85, label %112

85:                                               ; preds = %82
  %86 = load ptr, ptr %7, align 8
  %87 = getelementptr inbounds %"struct.SortedTreeNodes::XSliceTableData", ptr %86, i32 0, i32 7
  %88 = load ptr, ptr %87, align 8
  %89 = load ptr, ptr %7, align 8
  %90 = getelementptr inbounds %"struct.SortedTreeNodes::XSliceTableData", ptr %89, i32 0, i32 1
  %91 = load ptr, ptr %90, align 8
  %92 = load i32, ptr %16, align 4
  %93 = sext i32 %92 to i64
  %94 = getelementptr inbounds %"struct.SortedTreeNodes::_Indices", ptr %91, i64 %93
  %95 = load i32, ptr %18, align 4
  %96 = call noundef nonnull align 4 dereferenceable(4) ptr @_ZN15SortedTreeNodes8_IndicesILi4EEixEi(ptr noundef nonnull align 4 dereferenceable(16) %94, i32 noundef %95)
  %97 = load i32, ptr %96, align 4
  %98 = sext i32 %97 to i64
  %99 = getelementptr inbounds i32, ptr %88, i64 %98
  %100 = load i32, ptr %99, align 4
  %101 = load ptr, ptr %7, align 8
  %102 = getelementptr inbounds %"struct.SortedTreeNodes::XSliceTableData", ptr %101, i32 0, i32 1
  %103 = load ptr, ptr %102, align 8
  %104 = load i32, ptr %16, align 4
  %105 = sext i32 %104 to i64
  %106 = getelementptr inbounds %"struct.SortedTreeNodes::_Indices", ptr %103, i64 %105
  %107 = load i32, ptr %18, align 4
  %108 = call noundef nonnull align 4 dereferenceable(4) ptr @_ZN15SortedTreeNodes8_IndicesILi4EEixEi(ptr noundef nonnull align 4 dereferenceable(16) %106, i32 noundef %107)
  store i32 %100, ptr %108, align 4
  br label %109

109:                                              ; preds = %85
  %110 = load i32, ptr %18, align 4
  %111 = add i32 %110, 1
  store i32 %111, ptr %18, align 4
  br label %82, !llvm.loop !65

112:                                              ; preds = %82
  br label %113

113:                                              ; preds = %112
  br label %114

114:                                              ; preds = %113
  %115 = load i32, ptr %8, align 4
  %116 = add nsw i32 %115, 1
  store i32 %116, ptr %8, align 4
  br label %43

117:                                              ; preds = %43
  br label %118

118:                                              ; preds = %117
  %119 = load ptr, ptr %4, align 8
  %120 = load i32, ptr %119, align 4
  call void @__kmpc_for_static_fini(ptr @1, i32 %120)
  br label %121

121:                                              ; preds = %118, %3
  ret void
}