; Function Attrs: norecurse nounwind uwtable
define internal void @_ZNK15SortedTreeNodes18setXSliceTableDataERNS_15XSliceTableDataEiii.omp_outlined.12(ptr noalias nocapture noundef readonly %0, ptr noalias nocapture readnone %1, ptr nocapture noundef nonnull readonly align 8 dereferenceable(48) %2) #23 {
  %4 = alloca i32, align 4
  %5 = alloca i32, align 4
  %6 = alloca i32, align 4
  %7 = alloca i32, align 4
  %8 = getelementptr inbounds i8, ptr %2, i64 28
  %9 = load i32, ptr %8, align 4
  %10 = icmp sgt i32 %9, 0
  br i1 %10, label %11, label %41

11:                                               ; preds = %3
  %12 = add nsw i32 %9, -1
  store i32 0, ptr %4, align 4
  store i32 %12, ptr %5, align 4
  store i32 1, ptr %6, align 4
  store i32 0, ptr %7, align 4
  %13 = load i32, ptr %0, align 4
  call void @__kmpc_for_static_init_4(ptr nonnull @1, i32 %13, i32 34, ptr nonnull %7, ptr nonnull %4, ptr nonnull %5, ptr nonnull %6, i32 1, i32 1)
  %14 = load i32, ptr %5, align 4
  %15 = call i32 @llvm.smin.i32(i32 %14, i32 %12)
  store i32 %15, ptr %5, align 4
  %16 = load i32, ptr %4, align 4
  %.not34 = icmp sgt i32 %16, %15
  br i1 %.not34, label %._crit_edge, label %.preheader31.lr.ph

.preheader31.lr.ph:                               ; preds = %11
  %17 = getelementptr inbounds i8, ptr %2, i64 32
  %18 = getelementptr inbounds i8, ptr %2, i64 40
  %19 = getelementptr inbounds i8, ptr %2, i64 8
  %20 = sext i32 %16 to i64
  br label %.preheader31

.preheader31:                                     ; preds = %.preheader31.lr.ph, %38
  %indvars.iv41 = phi i64 [ %20, %.preheader31.lr.ph ], [ %indvars.iv.next42, %38 ]
  br label %21

21:                                               ; preds = %.preheader31, %21
  %indvars.iv = phi i64 [ 0, %.preheader31 ], [ %indvars.iv.next, %21 ]
  %22 = load ptr, ptr %17, align 8
  %23 = load ptr, ptr %2, align 8
  %24 = getelementptr inbounds %"struct.SortedTreeNodes::_Indices", ptr %23, i64 %indvars.iv41
  %25 = getelementptr inbounds [4 x i32], ptr %24, i64 0, i64 %indvars.iv
  %26 = load i32, ptr %25, align 4
  %27 = sext i32 %26 to i64
  %28 = getelementptr inbounds i32, ptr %22, i64 %27
  %29 = load i32, ptr %28, align 4
  store i32 %29, ptr %25, align 4
  %indvars.iv.next = add nuw nsw i64 %indvars.iv, 1
  %exitcond.not = icmp eq i64 %indvars.iv.next, 4
  br i1 %exitcond.not, label %.preheader, label %21, !llvm.loop !58

.preheader:                                       ; preds = %21, %.preheader
  %indvars.iv37 = phi i64 [ %indvars.iv.next38, %.preheader ], [ 0, %21 ]
  %30 = load ptr, ptr %18, align 8
  %31 = load ptr, ptr %19, align 8
  %32 = getelementptr inbounds %"struct.SortedTreeNodes::_Indices", ptr %31, i64 %indvars.iv41
  %33 = getelementptr inbounds [4 x i32], ptr %32, i64 0, i64 %indvars.iv37
  %34 = load i32, ptr %33, align 4
  %35 = sext i32 %34 to i64
  %36 = getelementptr inbounds i32, ptr %30, i64 %35
  %37 = load i32, ptr %36, align 4
  store i32 %37, ptr %33, align 4
  %indvars.iv.next38 = add nuw nsw i64 %indvars.iv37, 1
  %exitcond40.not = icmp eq i64 %indvars.iv.next38, 4
  br i1 %exitcond40.not, label %38, label %.preheader, !llvm.loop !59

38:                                               ; preds = %.preheader
  %indvars.iv.next42 = add nsw i64 %indvars.iv41, 1
  %39 = load i32, ptr %5, align 4
  %40 = sext i32 %39 to i64
  %.not.not = icmp slt i64 %indvars.iv41, %40
  br i1 %.not.not, label %.preheader31, label %._crit_edge

._crit_edge:                                      ; preds = %38, %11
  call void @__kmpc_for_static_fini(ptr nonnull @1, i32 %13)
  br label %41

41:                                               ; preds = %._crit_edge, %3
  ret void
}